; Function Attrs: mustprogress uwtable
define void @_ZNK5Ipopt9SumMatrix7GetTermEiRdRNS_8SmartPtrIKNS_6MatrixEEE(ptr noundef nonnull readonly align 8 captures(none) dereferenceable(128) %0, i32 noundef %1, ptr noundef nonnull writeonly align 8 captures(none) dereferenceable(8) initializes((0, 8)) %2, ptr noundef nonnull align 8 captures(none) dereferenceable(8) %3) local_unnamed_addr #0 align 2 {
  %5 = getelementptr inbounds nuw i8, ptr %0, i64 72
  %6 = sext i32 %1 to i64
  %7 = load ptr, ptr %5, align 8, !tbaa !33
  %8 = getelementptr inbounds nuw double, ptr %7, i64 %6
  %9 = load double, ptr %8, align 8, !tbaa !37
  store double %9, ptr %2, align 8, !tbaa !37
  %10 = getelementptr inbounds nuw i8, ptr %0, i64 96
  %11 = load ptr, ptr %10, align 8, !tbaa !42
  %12 = getelementptr inbounds nuw %"class.Ipopt::SmartPtr.15", ptr %11, i64 %6
  %13 = load ptr, ptr %12, align 8, !tbaa !45
  %.not.i.i.i = icmp eq ptr %13, null
  br i1 %.not.i.i.i, label %18, label %14

14:                                               ; preds = %4
  %15 = getelementptr inbounds nuw i8, ptr %13, i64 8
  %16 = load i32, ptr %15, align 8, !tbaa !3
  %17 = add nsw i32 %16, 1
  store i32 %17, ptr %15, align 8, !tbaa !3
  br label %18

18:                                               ; preds = %14, %4
  %19 = load ptr, ptr %3, align 8, !tbaa !45
  %.not.i.i.i.i = icmp eq ptr %19, null
  br i1 %.not.i.i.i.i, label %_ZN5Ipopt8SmartPtrIKNS_6MatrixEEaSERKS3_.exit, label %20

20:                                               ; preds = %18
  %21 = getelementptr inbounds nuw i8, ptr %19, i64 8
  %22 = load i32, ptr %21, align 8, !tbaa !3
  %23 = add nsw i32 %22, -1
  store i32 %23, ptr %21, align 8, !tbaa !3
  %24 = icmp eq i32 %23, 0
  br i1 %24, label %25, label %_ZN5Ipopt8SmartPtrIKNS_6MatrixEEaSERKS3_.exit

25:                                               ; preds = %20
  %26 = load ptr, ptr %19, align 8, !tbaa !8
  %27 = getelementptr inbounds nuw i8, ptr %26, i64 8
  %28 = load ptr, ptr %27, align 8
  tail call void %28(ptr noundef nonnull align 8 dereferenceable(69) %19) #20
  br label %_ZN5Ipopt8SmartPtrIKNS_6MatrixEEaSERKS3_.exit

_ZN5Ipopt8SmartPtrIKNS_6MatrixEEaSERKS3_.exit:    ; preds = %18, %20, %25
  store ptr %13, ptr %3, align 8, !tbaa !45
  ret void
}